; Function Attrs: mustprogress uwtable
define hidden noundef zeroext i1 @_ZN4nori6toBoolERKNSt7__cxx1112basic_stringIcSt11char_traitsIcESaIcEEE(ptr noundef nonnull align 8 dereferenceable(32) %0) local_unnamed_addr #3 personality ptr @__gxx_personality_v0 {
  %2 = alloca %"class.std::__cxx11::basic_string", align 8
  call void @_ZN4nori7toLowerERKNSt7__cxx1112basic_stringIcSt11char_traitsIcESaIcEEE(ptr dead_on_unwind nonnull writable sret(%"class.std::__cxx11::basic_string") align 8 %2, ptr noundef nonnull align 8 dereferenceable(32) %0)
  %3 = call noundef i32 @_ZNKSt7__cxx1112basic_stringIcSt11char_traitsIcESaIcEE7compareEPKc(ptr noundef nonnull align 8 dereferenceable(32) %2, ptr noundef nonnull @.str) #26
  %4 = icmp ne i32 %3, 0
  br i1 %4, label %7, label %15

5:                                                ; preds = %12
  %6 = landingpad { ptr, i32 }
          cleanup
  br label %16

7:                                                ; preds = %1
  %8 = call noundef i32 @_ZNKSt7__cxx1112basic_stringIcSt11char_traitsIcESaIcEE7compareEPKc(ptr noundef nonnull align 8 dereferenceable(32) %2, ptr noundef nonnull @.str.1) #26
  %9 = icmp eq i32 %8, 0
  br i1 %9, label %15, label %10

10:                                               ; preds = %7
  %11 = call ptr @__cxa_allocate_exception(i64 16) #26
  invoke void @_ZN4nori13NoriExceptionC2IJNSt7__cxx1112basic_stringIcSt11char_traitsIcESaIcEEEEEEPKcDpRKT_(ptr noundef nonnull align 8 dereferenceable(16) %11, ptr noundef nonnull @.str.2, ptr noundef nonnull align 8 dereferenceable(32) %0)
          to label %12 unwind label %13

12:                                               ; preds = %10
  invoke void @__cxa_throw(ptr nonnull %11, ptr nonnull @_ZTIN4nori13NoriExceptionE, ptr nonnull @_ZN4nori13NoriExceptionD2Ev) #27
          to label %17 unwind label %5

13:                                               ; preds = %10
  %14 = landingpad { ptr, i32 }
          cleanup
  call void @__cxa_free_exception(ptr %11) #26
  br label %16

15:                                               ; preds = %7, %1
  call void @_ZNSt7__cxx1112basic_stringIcSt11char_traitsIcESaIcEED1Ev(ptr noundef nonnull align 8 dereferenceable(32) %2) #26
  ret i1 %4

16:                                               ; preds = %13, %5
  %.pn = phi { ptr, i32 } [ %6, %5 ], [ %14, %13 ]
  call void @_ZNSt7__cxx1112basic_stringIcSt11char_traitsIcESaIcEED1Ev(ptr noundef nonnull align 8 dereferenceable(32) %2) #26
  resume { ptr, i32 } %.pn

17:                                               ; preds = %12
  unreachable
}